target datalayout = "e-m:e-p270:32:32-p271:32:32-p272:64:64-i64:64-i128:128-f80:128-n8:16:32:64-S128"
target triple = "x86_64-pc-linux-gnu"

%"class.Json::Value" = type { %"union.Json::Value::ValueHolder", %struct.anon, %"class.Json::Value::Comments", i64, i64 }
%"union.Json::Value::ValueHolder" = type { i64 }
%struct.anon = type { i16, [2 x i8] }
%"class.Json::Value::Comments" = type { %"class.std::unique_ptr.167" }
%"class.std::unique_ptr.167" = type { %"struct.std::__uniq_ptr_data.168" }
%"struct.std::__uniq_ptr_data.168" = type { %"class.std::__uniq_ptr_impl.169" }
%"class.std::__uniq_ptr_impl.169" = type { %"class.std::tuple.170" }
%"class.std::tuple.170" = type { %"struct.std::_Tuple_impl.171" }
%"struct.std::_Tuple_impl.171" = type { %"struct.std::_Head_base.174" }
%"struct.std::_Head_base.174" = type { ptr }
%"struct.cmFileAPI::Object" = type { i32, i64 }

; Function Attrs: mustprogress uwtable
define dso_local void @_ZN9cmFileAPI11BuildObjectERKNS_6ObjectE(ptr dead_on_unwind noalias writable sret(%"class.Json::Value") align 8 %0, ptr noundef nonnull align 8 dereferenceable(296) %1, ptr noundef nonnull align 8 dereferenceable(16) %2) #5 align 2 personality ptr @__gxx_personality_v0 {
  %4 = alloca ptr, align 8
  %5 = alloca ptr, align 8
  %6 = alloca ptr, align 8
  %7 = alloca i1, align 1
  %8 = alloca %"class.Json::Value", align 8
  %9 = alloca ptr, align 8
  %10 = alloca i32, align 4
  %11 = alloca %"class.Json::Value", align 8
  %12 = alloca %"class.Json::Value", align 8
  %13 = alloca %"class.Json::Value", align 8
  %14 = alloca %"class.Json::Value", align 8
  %15 = alloca %"class.Json::Value", align 8
  store ptr %0, ptr %4, align 8
  store ptr %1, ptr %5, align 8, !tbaa !20
  store ptr %2, ptr %6, align 8, !tbaa !154
  %16 = load ptr, ptr %5, align 8
  store i1 false, ptr %7, align 1
  call void @_ZN4Json5ValueC1ENS_9ValueTypeE(ptr noundef nonnull align 8 dereferenceable(40) %0, i32 noundef 0)
  %17 = load ptr, ptr %6, align 8, !tbaa !154
  %18 = getelementptr inbounds nuw %"struct.cmFileAPI::Object", ptr %17, i32 0, i32 0
  %19 = load i32, ptr %18, align 8, !tbaa !146
  switch i32 %19, label %68 [
    i32 0, label %20
    i32 1, label %28
    i32 2, label %36
    i32 3, label %44
    i32 4, label %52
    i32 5, label %60
  ]

20:                                               ; preds = %3
  call void @llvm.lifetime.start.p0(i64 40, ptr %8) #3
  %21 = load ptr, ptr %6, align 8, !tbaa !154
  invoke void @_ZN9cmFileAPI14BuildCodeModelERKNS_6ObjectE(ptr dead_on_unwind writable sret(%"class.Json::Value") align 8 %8, ptr noundef nonnull align 8 dereferenceable(296) %16, ptr noundef nonnull align 8 dereferenceable(16) %21)
          to label %22 unwind label %24

22:                                               ; preds = %20
  %23 = call noundef nonnull align 8 dereferenceable(40) ptr @_ZN4Json5ValueaSEOS0_(ptr noundef nonnull align 8 dereferenceable(40) %0, ptr noundef nonnull align 8 dereferenceable(40) %8) #3
  call void @_ZN4Json5ValueD1Ev(ptr noundef nonnull align 8 dereferenceable(40) %8) #3
  call void @llvm.lifetime.end.p0(i64 40, ptr %8) #3
  br label %68

24:                                               ; preds = %20
  %25 = landingpad { ptr, i32 }
          cleanup
  %26 = extractvalue { ptr, i32 } %25, 0
  store ptr %26, ptr %9, align 8
  %27 = extractvalue { ptr, i32 } %25, 1
  store i32 %27, ptr %10, align 4
  call void @llvm.lifetime.end.p0(i64 40, ptr %8) #3
  br label %72

28:                                               ; preds = %3
  call void @llvm.lifetime.start.p0(i64 40, ptr %11) #3
  %29 = load ptr, ptr %6, align 8, !tbaa !154
  invoke void @_ZN9cmFileAPI17BuildConfigureLogERKNS_6ObjectE(ptr dead_on_unwind writable sret(%"class.Json::Value") align 8 %11, ptr noundef nonnull align 8 dereferenceable(296) %16, ptr noundef nonnull align 8 dereferenceable(16) %29)
          to label %30 unwind label %32

30:                                               ; preds = %28
  %31 = call noundef nonnull align 8 dereferenceable(40) ptr @_ZN4Json5ValueaSEOS0_(ptr noundef nonnull align 8 dereferenceable(40) %0, ptr noundef nonnull align 8 dereferenceable(40) %11) #3
  call void @_ZN4Json5ValueD1Ev(ptr noundef nonnull align 8 dereferenceable(40) %11) #3
  call void @llvm.lifetime.end.p0(i64 40, ptr %11) #3
  br label %68

32:                                               ; preds = %28
  %33 = landingpad { ptr, i32 }
          cleanup
  %34 = extractvalue { ptr, i32 } %33, 0
  store ptr %34, ptr %9, align 8
  %35 = extractvalue { ptr, i32 } %33, 1
  store i32 %35, ptr %10, align 4
  call void @llvm.lifetime.end.p0(i64 40, ptr %11) #3
  br label %72

36:                                               ; preds = %3
  call void @llvm.lifetime.start.p0(i64 40, ptr %12) #3
  %37 = load ptr, ptr %6, align 8, !tbaa !154
  invoke void @_ZN9cmFileAPI10BuildCacheERKNS_6ObjectE(ptr dead_on_unwind writable sret(%"class.Json::Value") align 8 %12, ptr noundef nonnull align 8 dereferenceable(296) %16, ptr noundef nonnull align 8 dereferenceable(16) %37)
          to label %38 unwind label %40

38:                                               ; preds = %36
  %39 = call noundef nonnull align 8 dereferenceable(40) ptr @_ZN4Json5ValueaSEOS0_(ptr noundef nonnull align 8 dereferenceable(40) %0, ptr noundef nonnull align 8 dereferenceable(40) %12) #3
  call void @_ZN4Json5ValueD1Ev(ptr noundef nonnull align 8 dereferenceable(40) %12) #3
  call void @llvm.lifetime.end.p0(i64 40, ptr %12) #3
  br label %68

40:                                               ; preds = %36
  %41 = landingpad { ptr, i32 }
          cleanup
  %42 = extractvalue { ptr, i32 } %41, 0
  store ptr %42, ptr %9, align 8
  %43 = extractvalue { ptr, i32 } %41, 1
  store i32 %43, ptr %10, align 4
  call void @llvm.lifetime.end.p0(i64 40, ptr %12) #3
  br label %72

44:                                               ; preds = %3
  call void @llvm.lifetime.start.p0(i64 40, ptr %13) #3
  %45 = load ptr, ptr %6, align 8, !tbaa !154
  invoke void @_ZN9cmFileAPI15BuildCMakeFilesERKNS_6ObjectE(ptr dead_on_unwind writable sret(%"class.Json::Value") align 8 %13, ptr noundef nonnull align 8 dereferenceable(296) %16, ptr noundef nonnull align 8 dereferenceable(16) %45)
          to label %46 unwind label %48

46:                                               ; preds = %44
  %47 = call noundef nonnull align 8 dereferenceable(40) ptr @_ZN4Json5ValueaSEOS0_(ptr noundef nonnull align 8 dereferenceable(40) %0, ptr noundef nonnull align 8 dereferenceable(40) %13) #3
  call void @_ZN4Json5ValueD1Ev(ptr noundef nonnull align 8 dereferenceable(40) %13) #3
  call void @llvm.lifetime.end.p0(i64 40, ptr %13) #3
  br label %68

48:                                               ; preds = %44
  %49 = landingpad { ptr, i32 }
          cleanup
  %50 = extractvalue { ptr, i32 } %49, 0
  store ptr %50, ptr %9, align 8
  %51 = extractvalue { ptr, i32 } %49, 1
  store i32 %51, ptr %10, align 4
  call void @llvm.lifetime.end.p0(i64 40, ptr %13) #3
  br label %72

52:                                               ; preds = %3
  call void @llvm.lifetime.start.p0(i64 40, ptr %14) #3
  %53 = load ptr, ptr %6, align 8, !tbaa !154
  invoke void @_ZN9cmFileAPI15BuildToolchainsERKNS_6ObjectE(ptr dead_on_unwind writable sret(%"class.Json::Value") align 8 %14, ptr noundef nonnull align 8 dereferenceable(296) %16, ptr noundef nonnull align 8 dereferenceable(16) %53)
          to label %54 unwind label %56

54:                                               ; preds = %52
  %55 = call noundef nonnull align 8 dereferenceable(40) ptr @_ZN4Json5ValueaSEOS0_(ptr noundef nonnull align 8 dereferenceable(40) %0, ptr noundef nonnull align 8 dereferenceable(40) %14) #3
  call void @_ZN4Json5ValueD1Ev(ptr noundef nonnull align 8 dereferenceable(40) %14) #3
  call void @llvm.lifetime.end.p0(i64 40, ptr %14) #3
  br label %68

56:                                               ; preds = %52
  %57 = landingpad { ptr, i32 }
          cleanup
  %58 = extractvalue { ptr, i32 } %57, 0
  store ptr %58, ptr %9, align 8
  %59 = extractvalue { ptr, i32 } %57, 1
  store i32 %59, ptr %10, align 4
  call void @llvm.lifetime.end.p0(i64 40, ptr %14) #3
  br label %72

60:                                               ; preds = %3
  call void @llvm.lifetime.start.p0(i64 40, ptr %15) #3
  %61 = load ptr, ptr %6, align 8, !tbaa !154
  invoke void @_ZN9cmFileAPI17BuildInternalTestERKNS_6ObjectE(ptr dead_on_unwind writable sret(%"class.Json::Value") align 8 %15, ptr noundef nonnull align 8 dereferenceable(296) %16, ptr noundef nonnull align 8 dereferenceable(16) %61)
          to label %62 unwind label %64

62:                                               ; preds = %60
  %63 = call noundef nonnull align 8 dereferenceable(40) ptr @_ZN4Json5ValueaSEOS0_(ptr noundef nonnull align 8 dereferenceable(40) %0, ptr noundef nonnull align 8 dereferenceable(40) %15) #3
  call void @_ZN4Json5ValueD1Ev(ptr noundef nonnull align 8 dereferenceable(40) %15) #3
  call void @llvm.lifetime.end.p0(i64 40, ptr %15) #3
  br label %68

64:                                               ; preds = %60
  %65 = landingpad { ptr, i32 }
          cleanup
  %66 = extractvalue { ptr, i32 } %65, 0
  store ptr %66, ptr %9, align 8
  %67 = extractvalue { ptr, i32 } %65, 1
  store i32 %67, ptr %10, align 4
  call void @llvm.lifetime.end.p0(i64 40, ptr %15) #3
  br label %72

68:                                               ; preds = %3, %62, %54, %46, %38, %30, %22
  store i1 true, ptr %7, align 1
  %69 = load i1, ptr %7, align 1
  br i1 %69, label %71, label %70

70:                                               ; preds = %68
  call void @_ZN4Json5ValueD1Ev(ptr noundef nonnull align 8 dereferenceable(40) %0) #3
  br label %71

71:                                               ; preds = %70, %68
  ret void

72:                                               ; preds = %64, %56, %48, %40, %32, %24
  call void @_ZN4Json5ValueD1Ev(ptr noundef nonnull align 8 dereferenceable(40) %0) #3
  br label %73

73:                                               ; preds = %72
  %74 = load ptr, ptr %9, align 8
  %75 = load i32, ptr %10, align 4
  %76 = insertvalue { ptr, i32 } poison, ptr %74, 0
  %77 = insertvalue { ptr, i32 } %76, i32 %75, 1
  resume { ptr, i32 } %77
}