; Function Attrs: mustprogress uwtable
define dso_local void @_ZN9cmFileAPI11BuildObjectERKNS_6ObjectE(ptr dead_on_unwind noalias nonnull writable sret(%"class.Json::Value") align 8 %0, ptr noundef nonnull align 8 dereferenceable(296) %1, ptr noundef nonnull readonly align 8 captures(none) dereferenceable(16) %2) local_unnamed_addr #5 align 2 personality ptr @__gxx_personality_v0 {
  %4 = alloca %"class.Json::Value", align 8
  %5 = alloca %"class.Json::Value", align 8
  %6 = alloca %"class.Json::Value", align 8
  %7 = alloca %"class.Json::Value", align 8
  %8 = alloca %"class.Json::Value", align 8
  %9 = alloca %"class.Json::Value", align 8
  tail call void @_ZN4Json5ValueC1ENS_9ValueTypeE(ptr noundef nonnull align 8 dereferenceable(40) %0, i32 noundef 0)
  %10 = load i32, ptr %2, align 8, !tbaa !188
  switch i32 %10, label %41 [
    i32 0, label %11
    i32 1, label %16
    i32 2, label %21
    i32 3, label %26
    i32 4, label %31
    i32 5, label %36
  ]

11:                                               ; preds = %3
  call void @llvm.lifetime.start.p0(i64 40, ptr nonnull %4) #24
  invoke void @_ZN9cmFileAPI14BuildCodeModelERKNS_6ObjectE(ptr dead_on_unwind nonnull writable sret(%"class.Json::Value") align 8 %4, ptr noundef nonnull align 8 dereferenceable(296) %1, ptr noundef nonnull align 8 dereferenceable(16) %2)
          to label %12 unwind label %14

12:                                               ; preds = %11
  %13 = call noundef nonnull align 8 dereferenceable(40) ptr @_ZN4Json5ValueaSEOS0_(ptr noundef nonnull align 8 dereferenceable(40) %0, ptr noundef nonnull align 8 dereferenceable(40) %4) #24
  call void @_ZN4Json5ValueD1Ev(ptr noundef nonnull align 8 dereferenceable(40) %4) #24
  call void @llvm.lifetime.end.p0(i64 40, ptr nonnull %4) #24
  br label %41

14:                                               ; preds = %11
  %15 = landingpad { ptr, i32 }
          cleanup
  call void @llvm.lifetime.end.p0(i64 40, ptr nonnull %4) #24
  br label %42

16:                                               ; preds = %3
  call void @llvm.lifetime.start.p0(i64 40, ptr nonnull %5) #24
  invoke void @_ZN9cmFileAPI17BuildConfigureLogERKNS_6ObjectE(ptr dead_on_unwind nonnull writable sret(%"class.Json::Value") align 8 %5, ptr noundef nonnull align 8 dereferenceable(296) %1, ptr noundef nonnull align 8 dereferenceable(16) %2)
          to label %17 unwind label %19

17:                                               ; preds = %16
  %18 = call noundef nonnull align 8 dereferenceable(40) ptr @_ZN4Json5ValueaSEOS0_(ptr noundef nonnull align 8 dereferenceable(40) %0, ptr noundef nonnull align 8 dereferenceable(40) %5) #24
  call void @_ZN4Json5ValueD1Ev(ptr noundef nonnull align 8 dereferenceable(40) %5) #24
  call void @llvm.lifetime.end.p0(i64 40, ptr nonnull %5) #24
  br label %41

19:                                               ; preds = %16
  %20 = landingpad { ptr, i32 }
          cleanup
  call void @llvm.lifetime.end.p0(i64 40, ptr nonnull %5) #24
  br label %42

21:                                               ; preds = %3
  call void @llvm.lifetime.start.p0(i64 40, ptr nonnull %6) #24
  invoke void @_ZN9cmFileAPI10BuildCacheERKNS_6ObjectE(ptr dead_on_unwind nonnull writable sret(%"class.Json::Value") align 8 %6, ptr noundef nonnull align 8 dereferenceable(296) %1, ptr noundef nonnull align 8 dereferenceable(16) %2)
          to label %22 unwind label %24

22:                                               ; preds = %21
  %23 = call noundef nonnull align 8 dereferenceable(40) ptr @_ZN4Json5ValueaSEOS0_(ptr noundef nonnull align 8 dereferenceable(40) %0, ptr noundef nonnull align 8 dereferenceable(40) %6) #24
  call void @_ZN4Json5ValueD1Ev(ptr noundef nonnull align 8 dereferenceable(40) %6) #24
  call void @llvm.lifetime.end.p0(i64 40, ptr nonnull %6) #24
  br label %41

24:                                               ; preds = %21
  %25 = landingpad { ptr, i32 }
          cleanup
  call void @llvm.lifetime.end.p0(i64 40, ptr nonnull %6) #24
  br label %42

26:                                               ; preds = %3
  call void @llvm.lifetime.start.p0(i64 40, ptr nonnull %7) #24
  invoke void @_ZN9cmFileAPI15BuildCMakeFilesERKNS_6ObjectE(ptr dead_on_unwind nonnull writable sret(%"class.Json::Value") align 8 %7, ptr noundef nonnull align 8 dereferenceable(296) %1, ptr noundef nonnull align 8 dereferenceable(16) %2)
          to label %27 unwind label %29

27:                                               ; preds = %26
  %28 = call noundef nonnull align 8 dereferenceable(40) ptr @_ZN4Json5ValueaSEOS0_(ptr noundef nonnull align 8 dereferenceable(40) %0, ptr noundef nonnull align 8 dereferenceable(40) %7) #24
  call void @_ZN4Json5ValueD1Ev(ptr noundef nonnull align 8 dereferenceable(40) %7) #24
  call void @llvm.lifetime.end.p0(i64 40, ptr nonnull %7) #24
  br label %41

29:                                               ; preds = %26
  %30 = landingpad { ptr, i32 }
          cleanup
  call void @llvm.lifetime.end.p0(i64 40, ptr nonnull %7) #24
  br label %42

31:                                               ; preds = %3
  call void @llvm.lifetime.start.p0(i64 40, ptr nonnull %8) #24
  invoke void @_ZN9cmFileAPI15BuildToolchainsERKNS_6ObjectE(ptr dead_on_unwind nonnull writable sret(%"class.Json::Value") align 8 %8, ptr noundef nonnull align 8 dereferenceable(296) %1, ptr noundef nonnull align 8 dereferenceable(16) %2)
          to label %32 unwind label %34

32:                                               ; preds = %31
  %33 = call noundef nonnull align 8 dereferenceable(40) ptr @_ZN4Json5ValueaSEOS0_(ptr noundef nonnull align 8 dereferenceable(40) %0, ptr noundef nonnull align 8 dereferenceable(40) %8) #24
  call void @_ZN4Json5ValueD1Ev(ptr noundef nonnull align 8 dereferenceable(40) %8) #24
  call void @llvm.lifetime.end.p0(i64 40, ptr nonnull %8) #24
  br label %41

34:                                               ; preds = %31
  %35 = landingpad { ptr, i32 }
          cleanup
  call void @llvm.lifetime.end.p0(i64 40, ptr nonnull %8) #24
  br label %42

36:                                               ; preds = %3
  call void @llvm.lifetime.start.p0(i64 40, ptr nonnull %9) #24
  invoke void @_ZN9cmFileAPI17BuildInternalTestERKNS_6ObjectE(ptr dead_on_unwind nonnull writable sret(%"class.Json::Value") align 8 %9, ptr nonnull align 8 poison, ptr noundef nonnull align 8 dereferenceable(16) %2)
          to label %37 unwind label %39

37:                                               ; preds = %36
  %38 = call noundef nonnull align 8 dereferenceable(40) ptr @_ZN4Json5ValueaSEOS0_(ptr noundef nonnull align 8 dereferenceable(40) %0, ptr noundef nonnull align 8 dereferenceable(40) %9) #24
  call void @_ZN4Json5ValueD1Ev(ptr noundef nonnull align 8 dereferenceable(40) %9) #24
  call void @llvm.lifetime.end.p0(i64 40, ptr nonnull %9) #24
  br label %41

39:                                               ; preds = %36
  %40 = landingpad { ptr, i32 }
          cleanup
  call void @llvm.lifetime.end.p0(i64 40, ptr nonnull %9) #24
  br label %42

41:                                               ; preds = %3, %12, %17, %22, %27, %32, %37
  ret void

42:                                               ; preds = %39, %34, %29, %24, %19, %14
  %.pn = phi { ptr, i32 } [ %40, %39 ], [ %35, %34 ], [ %30, %29 ], [ %25, %24 ], [ %20, %19 ], [ %15, %14 ]
  call void @_ZN4Json5ValueD1Ev(ptr noundef nonnull align 8 dereferenceable(40) %0) #24
  resume { ptr, i32 } %.pn
}